; ModuleID = '34/946.c'
source_filename = "34/946.c"
target datalayout = "e-m:e-p270:32:32-p271:32:32-p272:64:64-i64:64-f80:128-n8:16:32:64-S128"
target triple = "x86_64-pc-linux-gnu"

@.str = private unnamed_addr constant [3 x i8] c"%d\00", align 1
@.str.1 = private unnamed_addr constant [11 x i8] c"%d*3+1=%d\0A\00", align 1
@.str.2 = private unnamed_addr constant [9 x i8] c"%d/2=%d\0A\00", align 1
@.str.3 = private unnamed_addr constant [4 x i8] c"End\00", align 1
@.str.4 = private unnamed_addr constant [2 x i8] c"\0A\00", align 1

; Function Attrs: noinline nounwind uwtable
define dso_local i32 @main() #0 {
  %1 = alloca i32, align 4
  %2 = alloca i32, align 4
  %3 = alloca i32, align 4
  store i32 0, i32* %1, align 4
  %4 = call i32 (i8*, ...) @__isoc99_scanf(i8* getelementptr inbounds ([3 x i8], [3 x i8]* @.str, i64 0, i64 0), i32* %2)
  br label %5

5:                                                ; preds = %28, %0
  %6 = load i32, i32* %2, align 4
  %7 = icmp ne i32 %6, 1
  br i1 %7, label %8, label %29

8:                                                ; preds = %5
  %9 = load i32, i32* %2, align 4
  %10 = srem i32 %9, 2
  %11 = icmp eq i32 %10, 1
  br i1 %11, label %12, label %21

12:                                               ; preds = %8
  %13 = load i32, i32* %2, align 4
  %14 = load i32, i32* %2, align 4
  %15 = mul nsw i32 %14, 3
  %16 = add nsw i32 %15, 1
  %17 = call i32 (i8*, ...) @printf(i8* getelementptr inbounds ([11 x i8], [11 x i8]* @.str.1, i64 0, i64 0), i32 %13, i32 %16)
  %18 = load i32, i32* %2, align 4
  %19 = mul nsw i32 %18, 3
  %20 = add nsw i32 %19, 1
  store i32 %20, i32* %2, align 4
  br label %28

21:                                               ; preds = %8
  %22 = load i32, i32* %2, align 4
  %23 = load i32, i32* %2, align 4
  %24 = sdiv i32 %23, 2
  %25 = call i32 (i8*, ...) @printf(i8* getelementptr inbounds ([9 x i8], [9 x i8]* @.str.2, i64 0, i64 0), i32 %22, i32 %24)
  %26 = load i32, i32* %2, align 4
  %27 = sdiv i32 %26, 2
  store i32 %27, i32* %2, align 4
  br label %28

28:                                               ; preds = %21, %12
  br label %5

29:                                               ; preds = %5
  %30 = call i32 (i8*, ...) @printf(i8* getelementptr inbounds ([4 x i8], [4 x i8]* @.str.3, i64 0, i64 0))
  %31 = call i32 (i8*, ...) @__isoc99_scanf(i8* getelementptr inbounds ([2 x i8], [2 x i8]* @.str.4, i64 0, i64 0))
  ret i32 0
}

declare dso_local i32 @__isoc99_scanf(i8*, ...) #1

declare dso_local i32 @printf(i8*, ...) #1


!llvm.module.flags = !{!0}
!llvm.ident = !{!1}

!0 = !{i32 1, !"wchar_size", i32 4}
!1 = !{!"clang version 10.0.0-4ubuntu1 "}
